target datalayout = "e-m:e-p270:32:32-p271:32:32-p272:64:64-i64:64-i128:128-f80:128-n8:16:32:64-S128"
target triple = "x86_64-pc-linux-gnu"

%struct.AVFilterGraph = type { ptr, ptr, i32, ptr, i32, i32, ptr, ptr, ptr }
%struct.AVFilterContext = type { ptr, ptr, ptr, ptr, ptr, i32, ptr, ptr, i32, ptr, ptr, i32, i32, ptr, ptr, ptr, ptr, i32, ptr, i32, i32 }
%struct.AVFilter = type { ptr, ptr, ptr, ptr, ptr, i32 }
%struct.FFFilterContext = type { %struct.AVFilterContext, ptr, i32, i32, ptr, ptr, ptr }
%struct.AVFilterCommand = type { double, ptr, ptr, i32, ptr }

@.str.1 = private unnamed_addr constant [4 x i8] c"all\00", align 1

; Function Attrs: inlinehint nounwind uwtable
define internal ptr @fffilterctx(ptr noundef %0) #3 {
  %2 = alloca ptr, align 8
  store ptr %0, ptr %2, align 8, !tbaa !18
  %3 = load ptr, ptr %2, align 8, !tbaa !18
  ret ptr %3
}

; Function Attrs: nounwind uwtable
define i32 @avfilter_graph_queue_command(ptr noundef %0, ptr noundef %1, ptr noundef %2, ptr noundef %3, i32 noundef %4, double noundef %5) #0 {
  %7 = alloca i32, align 4
  %8 = alloca ptr, align 8
  %9 = alloca ptr, align 8
  %10 = alloca ptr, align 8
  %11 = alloca ptr, align 8
  %12 = alloca i32, align 4
  %13 = alloca double, align 8
  %14 = alloca i32, align 4
  %15 = alloca i32, align 4
  %16 = alloca ptr, align 8
  %17 = alloca ptr, align 8
  %18 = alloca ptr, align 8
  %19 = alloca ptr, align 8
  store ptr %0, ptr %8, align 8, !tbaa !9
  store ptr %1, ptr %9, align 8, !tbaa !53
  store ptr %2, ptr %10, align 8, !tbaa !53
  store ptr %3, ptr %11, align 8, !tbaa !53
  store i32 %4, ptr %12, align 4, !tbaa !20
  store double %5, ptr %13, align 8, !tbaa !113
  call void @llvm.lifetime.start.p0(i64 4, ptr %14) #11
  %20 = load ptr, ptr %8, align 8, !tbaa !9
  %21 = icmp ne ptr %20, null
  br i1 %21, label %23, label %22

22:                                               ; preds = %6
  store i32 0, ptr %7, align 4
  store i32 1, ptr %15, align 4
  br label %130

23:                                               ; preds = %6
  store i32 0, ptr %14, align 4, !tbaa !20
  br label %24

24:                                               ; preds = %126, %23
  %25 = load i32, ptr %14, align 4, !tbaa !20
  %26 = load ptr, ptr %8, align 8, !tbaa !9
  %27 = getelementptr inbounds nuw %struct.AVFilterGraph, ptr %26, i32 0, i32 2
  %28 = load i32, ptr %27, align 8, !tbaa !21
  %29 = icmp ult i32 %25, %28
  br i1 %29, label %30, label %129

30:                                               ; preds = %24
  call void @llvm.lifetime.start.p0(i64 8, ptr %16) #11
  %31 = load ptr, ptr %8, align 8, !tbaa !9
  %32 = getelementptr inbounds nuw %struct.AVFilterGraph, ptr %31, i32 0, i32 1
  %33 = load ptr, ptr %32, align 8, !tbaa !22
  %34 = load i32, ptr %14, align 4, !tbaa !20
  %35 = sext i32 %34 to i64
  %36 = getelementptr inbounds ptr, ptr %33, i64 %35
  %37 = load ptr, ptr %36, align 8, !tbaa !18
  store ptr %37, ptr %16, align 8, !tbaa !18
  call void @llvm.lifetime.start.p0(i64 8, ptr %17) #11
  %38 = load ptr, ptr %16, align 8, !tbaa !18
  %39 = call ptr @fffilterctx(ptr noundef %38)
  store ptr %39, ptr %17, align 8, !tbaa !115
  %40 = load ptr, ptr %16, align 8, !tbaa !18
  %41 = icmp ne ptr %40, null
  br i1 %41, label %42, label %122

42:                                               ; preds = %30
  %43 = load ptr, ptr %9, align 8, !tbaa !53
  %44 = call i32 @strcmp(ptr noundef %43, ptr noundef @.str.1) #12
  %45 = icmp ne i32 %44, 0
  br i1 %45, label %46, label %62

46:                                               ; preds = %42
  %47 = load ptr, ptr %9, align 8, !tbaa !53
  %48 = load ptr, ptr %16, align 8, !tbaa !18
  %49 = getelementptr inbounds nuw %struct.AVFilterContext, ptr %48, i32 0, i32 2
  %50 = load ptr, ptr %49, align 8, !tbaa !63
  %51 = call i32 @strcmp(ptr noundef %47, ptr noundef %50) #12
  %52 = icmp ne i32 %51, 0
  br i1 %52, label %53, label %62

53:                                               ; preds = %46
  %54 = load ptr, ptr %9, align 8, !tbaa !53
  %55 = load ptr, ptr %16, align 8, !tbaa !18
  %56 = getelementptr inbounds nuw %struct.AVFilterContext, ptr %55, i32 0, i32 1
  %57 = load ptr, ptr %56, align 8, !tbaa !78
  %58 = getelementptr inbounds nuw %struct.AVFilter, ptr %57, i32 0, i32 0
  %59 = load ptr, ptr %58, align 8, !tbaa !79
  %60 = call i32 @strcmp(ptr noundef %54, ptr noundef %59) #12
  %61 = icmp ne i32 %60, 0
  br i1 %61, label %122, label %62

62:                                               ; preds = %53, %46, %42
  call void @llvm.lifetime.start.p0(i64 8, ptr %18) #11
  %63 = load ptr, ptr %17, align 8, !tbaa !115
  %64 = getelementptr inbounds nuw %struct.FFFilterContext, ptr %63, i32 0, i32 6
  store ptr %64, ptr %18, align 8, !tbaa !117
  call void @llvm.lifetime.start.p0(i64 8, ptr %19) #11
  br label %65

65:                                               ; preds = %78, %62
  %66 = load ptr, ptr %18, align 8, !tbaa !117
  %67 = load ptr, ptr %66, align 8, !tbaa !119
  %68 = icmp ne ptr %67, null
  br i1 %68, label %69, label %76

69:                                               ; preds = %65
  %70 = load ptr, ptr %18, align 8, !tbaa !117
  %71 = load ptr, ptr %70, align 8, !tbaa !119
  %72 = getelementptr inbounds nuw %struct.AVFilterCommand, ptr %71, i32 0, i32 0
  %73 = load double, ptr %72, align 8, !tbaa !120
  %74 = load double, ptr %13, align 8, !tbaa !113
  %75 = fcmp nsz ole double %73, %74
  br label %76

76:                                               ; preds = %69, %65
  %77 = phi i1 [ false, %65 ], [ %75, %69 ]
  br i1 %77, label %78, label %82

78:                                               ; preds = %76
  %79 = load ptr, ptr %18, align 8, !tbaa !117
  %80 = load ptr, ptr %79, align 8, !tbaa !119
  %81 = getelementptr inbounds nuw %struct.AVFilterCommand, ptr %80, i32 0, i32 4
  store ptr %81, ptr %18, align 8, !tbaa !117
  br label %65, !llvm.loop !122

82:                                               ; preds = %76
  %83 = load ptr, ptr %18, align 8, !tbaa !117
  %84 = load ptr, ptr %83, align 8, !tbaa !119
  store ptr %84, ptr %19, align 8, !tbaa !119
  %85 = call noalias ptr @av_mallocz(i64 noundef 40)
  %86 = load ptr, ptr %18, align 8, !tbaa !117
  store ptr %85, ptr %86, align 8, !tbaa !119
  %87 = load ptr, ptr %18, align 8, !tbaa !117
  %88 = load ptr, ptr %87, align 8, !tbaa !119
  %89 = icmp ne ptr %88, null
  br i1 %89, label %91, label %90

90:                                               ; preds = %82
  store i32 -12, ptr %7, align 4
  store i32 1, ptr %15, align 4
  br label %119

91:                                               ; preds = %82
  %92 = load ptr, ptr %10, align 8, !tbaa !53
  %93 = call noalias ptr @av_strdup(ptr noundef %92)
  %94 = load ptr, ptr %18, align 8, !tbaa !117
  %95 = load ptr, ptr %94, align 8, !tbaa !119
  %96 = getelementptr inbounds nuw %struct.AVFilterCommand, ptr %95, i32 0, i32 1
  store ptr %93, ptr %96, align 8, !tbaa !123
  %97 = load ptr, ptr %11, align 8, !tbaa !53
  %98 = call noalias ptr @av_strdup(ptr noundef %97)
  %99 = load ptr, ptr %18, align 8, !tbaa !117
  %100 = load ptr, ptr %99, align 8, !tbaa !119
  %101 = getelementptr inbounds nuw %struct.AVFilterCommand, ptr %100, i32 0, i32 2
  store ptr %98, ptr %101, align 8, !tbaa !124
  %102 = load double, ptr %13, align 8, !tbaa !113
  %103 = load ptr, ptr %18, align 8, !tbaa !117
  %104 = load ptr, ptr %103, align 8, !tbaa !119
  %105 = getelementptr inbounds nuw %struct.AVFilterCommand, ptr %104, i32 0, i32 0
  store double %102, ptr %105, align 8, !tbaa !120
  %106 = load i32, ptr %12, align 4, !tbaa !20
  %107 = load ptr, ptr %18, align 8, !tbaa !117
  %108 = load ptr, ptr %107, align 8, !tbaa !119
  %109 = getelementptr inbounds nuw %struct.AVFilterCommand, ptr %108, i32 0, i32 3
  store i32 %106, ptr %109, align 8, !tbaa !125
  %110 = load ptr, ptr %19, align 8, !tbaa !119
  %111 = load ptr, ptr %18, align 8, !tbaa !117
  %112 = load ptr, ptr %111, align 8, !tbaa !119
  %113 = getelementptr inbounds nuw %struct.AVFilterCommand, ptr %112, i32 0, i32 4
  store ptr %110, ptr %113, align 8, !tbaa !126
  %114 = load i32, ptr %12, align 4, !tbaa !20
  %115 = and i32 %114, 1
  %116 = icmp ne i32 %115, 0
  br i1 %116, label %117, label %118

117:                                              ; preds = %91
  store i32 0, ptr %7, align 4
  store i32 1, ptr %15, align 4
  br label %119

118:                                              ; preds = %91
  store i32 0, ptr %15, align 4
  br label %119

119:                                              ; preds = %118, %117, %90
  call void @llvm.lifetime.end.p0(i64 8, ptr %19) #11
  call void @llvm.lifetime.end.p0(i64 8, ptr %18) #11
  %120 = load i32, ptr %15, align 4
  switch i32 %120, label %123 [
    i32 0, label %121
  ]

121:                                              ; preds = %119
  br label %122

122:                                              ; preds = %121, %53, %30
  store i32 0, ptr %15, align 4
  br label %123

123:                                              ; preds = %122, %119
  call void @llvm.lifetime.end.p0(i64 8, ptr %17) #11
  call void @llvm.lifetime.end.p0(i64 8, ptr %16) #11
  %124 = load i32, ptr %15, align 4
  switch i32 %124, label %130 [
    i32 0, label %125
  ]

125:                                              ; preds = %123
  br label %126

126:                                              ; preds = %125
  %127 = load i32, ptr %14, align 4, !tbaa !20
  %128 = add nsw i32 %127, 1
  store i32 %128, ptr %14, align 4, !tbaa !20
  br label %24, !llvm.loop !127

129:                                              ; preds = %24
  store i32 0, ptr %7, align 4
  store i32 1, ptr %15, align 4
  br label %130

130:                                              ; preds = %129, %123, %22
  call void @llvm.lifetime.end.p0(i64 4, ptr %14) #11
  %131 = load i32, ptr %7, align 4
  ret i32 %131
}