; Function Attrs: nounwind uwtable
define range(i32 -12, 1) i32 @avfilter_graph_queue_command(ptr noundef readonly captures(address_is_null) %0, ptr noundef readonly captures(none) %1, ptr noundef %2, ptr noundef %3, i32 noundef %4, double noundef %5) local_unnamed_addr #0 {
  %.not = icmp eq ptr %0, null
  br i1 %.not, label %.thread52, label %.preheader

.preheader:                                       ; preds = %6
  %7 = getelementptr inbounds nuw i8, ptr %0, i64 16
  %8 = load i32, ptr %7, align 8, !tbaa !14
  %.not67 = icmp eq i32 %8, 0
  br i1 %.not67, label %.thread52, label %.lr.ph62

.lr.ph62:                                         ; preds = %.preheader
  %9 = getelementptr inbounds nuw i8, ptr %0, i64 8
  %10 = and i32 %4, 1
  %.not48 = icmp eq i32 %10, 0
  br label %11

11:                                               ; preds = %.lr.ph62, %.thread
  %12 = phi i32 [ %8, %.lr.ph62 ], [ %49, %.thread ]
  %indvars.iv = phi i64 [ 0, %.lr.ph62 ], [ %indvars.iv.next, %.thread ]
  %13 = load ptr, ptr %9, align 8, !tbaa !15
  %14 = getelementptr inbounds nuw ptr, ptr %13, i64 %indvars.iv
  %15 = load ptr, ptr %14, align 8, !tbaa !18
  %.not42 = icmp eq ptr %15, null
  br i1 %.not42, label %.thread, label %16

16:                                               ; preds = %11
  %17 = tail call i32 @strcmp(ptr noundef nonnull dereferenceable(1) %1, ptr noundef nonnull dereferenceable(4) @.str.1) #15
  %.not43 = icmp eq i32 %17, 0
  br i1 %.not43, label %27, label %18

18:                                               ; preds = %16
  %19 = getelementptr inbounds nuw i8, ptr %15, i64 16
  %20 = load ptr, ptr %19, align 8, !tbaa !53
  %21 = tail call i32 @strcmp(ptr noundef nonnull dereferenceable(1) %1, ptr noundef nonnull dereferenceable(1) %20) #15
  %.not44 = icmp eq i32 %21, 0
  br i1 %.not44, label %27, label %22

22:                                               ; preds = %18
  %23 = getelementptr inbounds nuw i8, ptr %15, i64 8
  %24 = load ptr, ptr %23, align 8, !tbaa !66
  %25 = load ptr, ptr %24, align 8, !tbaa !67
  %26 = tail call i32 @strcmp(ptr noundef nonnull dereferenceable(1) %1, ptr noundef nonnull dereferenceable(1) %25) #15
  %.not45 = icmp eq i32 %26, 0
  br i1 %.not45, label %27, label %.thread

27:                                               ; preds = %22, %18, %16
  %28 = getelementptr inbounds nuw i8, ptr %15, i64 184
  %29 = load ptr, ptr %28, align 8, !tbaa !190
  %.not4655 = icmp eq ptr %29, null
  br i1 %.not4655, label %.critedge, label %.lr.ph.preheader

.lr.ph.preheader:                                 ; preds = %27
  %30 = load double, ptr %29, align 8, !tbaa !191
  %31 = fcmp nsz ugt double %30, %5
  br i1 %31, label %.critedge, label %.lr.ph69

.lr.ph:                                           ; preds = %.lr.ph69
  %32 = load double, ptr %36, align 8, !tbaa !191
  %33 = fcmp nsz ugt double %32, %5
  br i1 %33, label %.critedge.loopexit, label %.lr.ph69, !llvm.loop !194

.lr.ph69:                                         ; preds = %.lr.ph.preheader, %.lr.ph
  %34 = phi ptr [ %36, %.lr.ph ], [ %29, %.lr.ph.preheader ]
  %35 = getelementptr inbounds nuw i8, ptr %34, i64 32
  %36 = load ptr, ptr %35, align 8, !tbaa !190
  %.not46 = icmp eq ptr %36, null
  br i1 %.not46, label %..critedge.loopexit_crit_edge, label %.lr.ph, !llvm.loop !194

..critedge.loopexit_crit_edge:                    ; preds = %.lr.ph69
  %37 = getelementptr inbounds nuw i8, ptr %34, i64 32
  br label %.critedge, !llvm.loop !194

.critedge.loopexit:                               ; preds = %.lr.ph
  %38 = getelementptr inbounds nuw i8, ptr %34, i64 32
  br label %.critedge

.critedge:                                        ; preds = %.critedge.loopexit, %.lr.ph.preheader, %..critedge.loopexit_crit_edge, %27
  %.035.lcssa = phi ptr [ %28, %27 ], [ %37, %..critedge.loopexit_crit_edge ], [ %28, %.lr.ph.preheader ], [ %38, %.critedge.loopexit ]
  %.lcssa = phi ptr [ null, %27 ], [ null, %..critedge.loopexit_crit_edge ], [ %29, %.lr.ph.preheader ], [ %36, %.critedge.loopexit ]
  %39 = tail call noalias ptr @av_mallocz(i64 noundef 40) #14
  store ptr %39, ptr %.035.lcssa, align 8, !tbaa !190
  %.not47 = icmp eq ptr %39, null
  br i1 %.not47, label %.thread52, label %40

40:                                               ; preds = %.critedge
  %41 = tail call noalias ptr @av_strdup(ptr noundef %2) #14
  %42 = load ptr, ptr %.035.lcssa, align 8, !tbaa !190
  %43 = getelementptr inbounds nuw i8, ptr %42, i64 8
  store ptr %41, ptr %43, align 8, !tbaa !195
  %44 = tail call noalias ptr @av_strdup(ptr noundef %3) #14
  %45 = load ptr, ptr %.035.lcssa, align 8, !tbaa !190
  %46 = getelementptr inbounds nuw i8, ptr %45, i64 16
  store ptr %44, ptr %46, align 8, !tbaa !196
  store double %5, ptr %45, align 8, !tbaa !191
  %47 = getelementptr inbounds nuw i8, ptr %45, i64 24
  store i32 %4, ptr %47, align 8, !tbaa !197
  %48 = getelementptr inbounds nuw i8, ptr %45, i64 32
  store ptr %.lcssa, ptr %48, align 8, !tbaa !198
  br i1 %.not48, label %..thread_crit_edge, label %.thread52

..thread_crit_edge:                               ; preds = %40
  %.pre = load i32, ptr %7, align 8, !tbaa !14
  br label %.thread

.thread:                                          ; preds = %..thread_crit_edge, %11, %22
  %49 = phi i32 [ %.pre, %..thread_crit_edge ], [ %12, %11 ], [ %12, %22 ]
  %indvars.iv.next = add nuw nsw i64 %indvars.iv, 1
  %50 = zext i32 %49 to i64
  %51 = icmp samesign ult i64 %indvars.iv.next, %50
  br i1 %51, label %11, label %.thread52, !llvm.loop !199

.thread52:                                        ; preds = %40, %.thread, %.critedge, %.preheader, %6
  %.0 = phi i32 [ 0, %6 ], [ 0, %.preheader ], [ 0, %40 ], [ 0, %.thread ], [ -12, %.critedge ]
  ret i32 %.0
}